; Function Attrs: mustprogress nounwind uwtable
define noundef zeroext i1 @_ZN7glslang11HlslGrammar15acceptCaseLabelERP11TIntermNode(ptr noundef nonnull align 8 dereferenceable(360) %0, ptr nocapture noundef nonnull writeonly align 8 dereferenceable(8) %1) local_unnamed_addr #0 align 2 {
  %3 = alloca %"struct.glslang::TSourceLoc", align 8
  %4 = alloca ptr, align 8
  %5 = getelementptr inbounds i8, ptr %0, i64 8
  call void @llvm.memcpy.p0.p0.i64(ptr noundef nonnull align 8 dereferenceable(24) %3, ptr noundef nonnull align 8 dereferenceable(24) %5, i64 24, i1 false)
  %6 = tail call noundef zeroext i1 @_ZN7glslang15HlslTokenStream16acceptTokenClassENS_15EHlslTokenClassE(ptr noundef nonnull align 8 dereferenceable(324) %0, i32 noundef 331) #16
  br i1 %6, label %7, label %28

7:                                                ; preds = %2
  %8 = call noundef zeroext i1 @_ZN7glslang11HlslGrammar16acceptExpressionERPNS_12TIntermTypedE(ptr noundef nonnull align 8 dereferenceable(360) %0, ptr noundef nonnull align 8 dereferenceable(8) %4)
  br i1 %8, label %15, label %9

9:                                                ; preds = %7
  %10 = getelementptr inbounds i8, ptr %0, i64 328
  %11 = load ptr, ptr %10, align 8
  %12 = load ptr, ptr %11, align 8
  %13 = getelementptr inbounds i8, ptr %12, i64 344
  %14 = load ptr, ptr %13, align 8
  call void (ptr, ptr, ptr, ptr, ptr, ...) %14(ptr noundef nonnull align 8 dereferenceable(1280) %11, ptr noundef nonnull align 8 dereferenceable(24) %5, ptr noundef nonnull @.str, ptr noundef nonnull @.str.110, ptr noundef nonnull @.str.1) #16
  br label %28

15:                                               ; preds = %7
  %16 = call noundef zeroext i1 @_ZN7glslang15HlslTokenStream16acceptTokenClassENS_15EHlslTokenClassE(ptr noundef nonnull align 8 dereferenceable(324) %0, i32 noundef 363) #16
  %17 = getelementptr inbounds i8, ptr %0, i64 328
  %18 = load ptr, ptr %17, align 8
  br i1 %16, label %23, label %19

19:                                               ; preds = %15
  %20 = load ptr, ptr %18, align 8
  %21 = getelementptr inbounds i8, ptr %20, i64 344
  %22 = load ptr, ptr %21, align 8
  call void (ptr, ptr, ptr, ptr, ptr, ...) %22(ptr noundef nonnull align 8 dereferenceable(1280) %18, ptr noundef nonnull align 8 dereferenceable(24) %5, ptr noundef nonnull @.str, ptr noundef nonnull @.str.81, ptr noundef nonnull @.str.1) #16
  br label %28

23:                                               ; preds = %15
  %24 = getelementptr inbounds i8, ptr %18, i64 56
  %25 = load ptr, ptr %24, align 8
  %26 = load ptr, ptr %4, align 8
  %27 = call noundef ptr @_ZN7glslang13TIntermediate9addBranchENS_9TOperatorEPNS_12TIntermTypedERKNS_10TSourceLocE(ptr noundef nonnull align 8 dereferenceable(2024) %25, i32 noundef 472, ptr noundef %26, ptr noundef nonnull align 8 dereferenceable(24) %3) #16
  store ptr %27, ptr %1, align 8
  br label %28

28:                                               ; preds = %2, %23, %19, %9
  %.0 = phi i1 [ true, %23 ], [ false, %19 ], [ false, %9 ], [ false, %2 ]
  ret i1 %.0
}